; Function Attrs: null_pointer_is_valid sspstrong uwtable
define internal i32 @dissect_afsErrorStatus(ptr noundef %0, i32 noundef %1, ptr noundef %2, ptr noundef %3, ptr noundef %4, ptr noundef %5) #0 {
  %7 = alloca ptr, align 8
  %8 = alloca i32, align 4
  call void @llvm.lifetime.start.p0(i64 8, ptr nonnull %7) #4
  store ptr null, ptr %7, align 8
  call void @llvm.lifetime.start.p0(i64 4, ptr nonnull %8) #4
  %9 = getelementptr inbounds nuw i8, ptr %4, i64 25
  %10 = load i8, ptr %9, align 1, !range !6, !noundef !7
  %11 = trunc nuw i8 %10 to i1
  br i1 %11, label %25, label %12

12:                                               ; preds = %6
  %.not = icmp eq ptr %3, null
  br i1 %.not, label %16, label %13

13:                                               ; preds = %12
  %14 = load i32, ptr @ett_fileexp_afsErrorStatus, align 4
  %15 = call ptr @proto_tree_add_subtree(ptr noundef nonnull %3, ptr noundef %0, i32 noundef %1, i32 noundef -1, i32 noundef %14, ptr noundef nonnull %7, ptr noundef nonnull @.str.471)
  br label %16

16:                                               ; preds = %13, %12
  %.018 = phi ptr [ %15, %13 ], [ null, %12 ]
  %17 = load i32, ptr @hf_afserrorstatus_st, align 4
  %18 = call i32 @dissect_ndr_uint32(ptr noundef %0, i32 noundef %1, ptr noundef %2, ptr noundef %.018, ptr noundef %4, ptr noundef %5, i32 noundef %17, ptr noundef nonnull %8)
  %19 = load i32, ptr %8, align 4
  %20 = call ptr @val_to_str_ext(i32 noundef %19, ptr noundef nonnull @dce_error_vals_ext, ptr noundef nonnull @.str.346)
  %21 = getelementptr inbounds nuw i8, ptr %2, i64 8
  %22 = load ptr, ptr %21, align 8
  call void (ptr, i32, ptr, ...) @col_append_fstr(ptr noundef %22, i32 noundef 25, ptr noundef nonnull @.str.375, ptr noundef %20)
  %23 = load ptr, ptr %7, align 8
  %24 = sub i32 %18, %1
  call void @proto_item_set_len(ptr noundef %23, i32 noundef %24)
  br label %25

25:                                               ; preds = %6, %16
  %.0 = phi i32 [ %18, %16 ], [ %1, %6 ]
  call void @llvm.lifetime.end.p0(i64 4, ptr nonnull %8) #4
  call void @llvm.lifetime.end.p0(i64 8, ptr nonnull %7) #4
  ret i32 %.0
}